; Function Attrs: mustprogress uwtable
define hidden void @_ZN5osgeo4proj22CPLJSonStreamingWriter9DecIndentEv(ptr noundef nonnull align 8 dereferenceable(153) %0) local_unnamed_addr #0 align 2 {
  %2 = getelementptr inbounds i8, ptr %0, i64 120
  %3 = load i32, ptr %2, align 8
  %4 = add nsw i32 %3, -1
  store i32 %4, ptr %2, align 8
  %5 = getelementptr inbounds i8, ptr %0, i64 48
  %6 = load i8, ptr %5, align 8
  %7 = trunc i8 %6 to i1
  br i1 %7, label %8, label %14

8:                                                ; preds = %1
  %9 = getelementptr inbounds i8, ptr %0, i64 88
  %10 = tail call noundef i64 @_ZNKSt7__cxx1112basic_stringIcSt11char_traitsIcESaIcEE4sizeEv(ptr noundef nonnull align 8 dereferenceable(32) %9) #13
  %11 = getelementptr inbounds i8, ptr %0, i64 56
  %12 = tail call noundef i64 @_ZNKSt7__cxx1112basic_stringIcSt11char_traitsIcESaIcEE4sizeEv(ptr noundef nonnull align 8 dereferenceable(32) %11) #13
  %13 = sub i64 %10, %12
  tail call void @_ZNSt7__cxx1112basic_stringIcSt11char_traitsIcESaIcEE6resizeEm(ptr noundef nonnull align 8 dereferenceable(32) %9, i64 noundef %13)
  br label %14

14:                                               ; preds = %8, %1
  ret void
}